target datalayout = "e-m:e-p270:32:32-p271:32:32-p272:64:64-i64:64-i128:128-f80:128-n8:16:32:64-S128"
target triple = "x86_64-pc-linux-gnu"

%struct.DCALbrDecoder = type { ptr, %struct.GetBitContext, i32, i32, i32, i32, i32, i32, i32, i32, i32, i32, i32, i32, i32, i32, i32, i32, i32, i32, i32, [3 x [32 x i8]], [32 x i8], [3 x [32 x i8]], [3 x [32 x i8]], [6 x i32], [6 x [12 x [8 x i8]]], [6 x [3 x [64 x i8]]], [6 x [28 x i8]], [6 x [28 x [8 x i8]]], [6 x i32], [6 x [32 x [8 x i8]]], [6 x [8 x [5 x i8]]], i8, [2 x [6 x [3 x [2 x [8 x float]]]]], [32 x float], [6 x [32 x ptr]], ptr, i32, [4 x i8], [6 x [128 x float]], [128 x float], [64 x float], [5 x [2 x float]], float, [6 x i8], [5 x [32 x [2 x i16]]], [512 x %struct.DCALbrTone], i32, ptr, ptr, ptr, ptr, [8 x i8] }
%struct.GetBitContext = type { ptr, ptr, i32, i32, i32 }
%struct.DCALbrTone = type { i8, i8, i8, i8, [6 x i8], [6 x i8] }

; Function Attrs: cold nounwind optsize uwtable
define void @ff_dca_lbr_flush(ptr noundef %0) #0 {
  %2 = alloca ptr, align 8
  %3 = alloca i32, align 4
  %4 = alloca i32, align 4
  %5 = alloca i32, align 4
  %6 = alloca ptr, align 8
  store ptr %0, ptr %2, align 8, !tbaa !12
  call void @llvm.lifetime.start.p0(i64 4, ptr %3) #12
  call void @llvm.lifetime.start.p0(i64 4, ptr %4) #12
  %7 = load ptr, ptr %2, align 8, !tbaa !12
  %8 = getelementptr inbounds nuw %struct.DCALbrDecoder, ptr %7, i32 0, i32 2
  %9 = load i32, ptr %8, align 8, !tbaa !30
  %10 = icmp ne i32 %9, 0
  br i1 %10, label %12, label %11

11:                                               ; preds = %1
  store i32 1, ptr %5, align 4
  br label %65

12:                                               ; preds = %1
  %13 = load ptr, ptr %2, align 8, !tbaa !12
  %14 = getelementptr inbounds nuw %struct.DCALbrDecoder, ptr %13, i32 0, i32 32
  %15 = getelementptr inbounds [6 x [8 x [5 x i8]]], ptr %14, i64 0, i64 0
  call void @llvm.memset.p0.i64(ptr align 4 %15, i8 16, i64 240, i1 false)
  %16 = load ptr, ptr %2, align 8, !tbaa !12
  %17 = getelementptr inbounds nuw %struct.DCALbrDecoder, ptr %16, i32 0, i32 34
  %18 = getelementptr inbounds [2 x [6 x [3 x [2 x [8 x float]]]]], ptr %17, i64 0, i64 0
  call void @llvm.memset.p0.i64(ptr align 16 %18, i8 0, i64 2304, i1 false)
  %19 = load ptr, ptr %2, align 8, !tbaa !12
  %20 = getelementptr inbounds nuw %struct.DCALbrDecoder, ptr %19, i32 0, i32 40
  %21 = getelementptr inbounds [6 x [128 x float]], ptr %20, i64 0, i64 0
  call void @llvm.memset.p0.i64(ptr align 16 %21, i8 0, i64 3072, i1 false)
  %22 = load ptr, ptr %2, align 8, !tbaa !12
  %23 = getelementptr inbounds nuw %struct.DCALbrDecoder, ptr %22, i32 0, i32 46
  %24 = getelementptr inbounds [5 x [32 x [2 x i16]]], ptr %23, i64 0, i64 0
  call void @llvm.memset.p0.i64(ptr align 2 %24, i8 0, i64 640, i1 false)
  %25 = load ptr, ptr %2, align 8, !tbaa !12
  %26 = getelementptr inbounds nuw %struct.DCALbrDecoder, ptr %25, i32 0, i32 43
  %27 = getelementptr inbounds [5 x [2 x float]], ptr %26, i64 0, i64 0
  call void @llvm.memset.p0.i64(ptr align 16 %27, i8 0, i64 40, i1 false)
  %28 = load ptr, ptr %2, align 8, !tbaa !12
  %29 = getelementptr inbounds nuw %struct.DCALbrDecoder, ptr %28, i32 0, i32 18
  store i32 0, ptr %29, align 8, !tbaa !55
  %30 = load ptr, ptr %2, align 8, !tbaa !12
  %31 = getelementptr inbounds nuw %struct.DCALbrDecoder, ptr %30, i32 0, i32 48
  store i32 0, ptr %31, align 4, !tbaa !60
  store i32 0, ptr %3, align 4, !tbaa !4
  br label %32

32:                                               ; preds = %61, %12
  %33 = load i32, ptr %3, align 4, !tbaa !4
  %34 = load ptr, ptr %2, align 8, !tbaa !12
  %35 = getelementptr inbounds nuw %struct.DCALbrDecoder, ptr %34, i32 0, i32 7
  %36 = load i32, ptr %35, align 4, !tbaa !56
  %37 = icmp slt i32 %33, %36
  br i1 %37, label %38, label %64

38:                                               ; preds = %32
  store i32 0, ptr %4, align 4, !tbaa !4
  br label %39

39:                                               ; preds = %57, %38
  %40 = load i32, ptr %4, align 4, !tbaa !4
  %41 = load ptr, ptr %2, align 8, !tbaa !12
  %42 = getelementptr inbounds nuw %struct.DCALbrDecoder, ptr %41, i32 0, i32 14
  %43 = load i32, ptr %42, align 8, !tbaa !57
  %44 = icmp slt i32 %40, %43
  br i1 %44, label %45, label %60

45:                                               ; preds = %39
  call void @llvm.lifetime.start.p0(i64 8, ptr %6) #12
  %46 = load ptr, ptr %2, align 8, !tbaa !12
  %47 = getelementptr inbounds nuw %struct.DCALbrDecoder, ptr %46, i32 0, i32 36
  %48 = load i32, ptr %3, align 4, !tbaa !4
  %49 = sext i32 %48 to i64
  %50 = getelementptr inbounds [6 x [32 x ptr]], ptr %47, i64 0, i64 %49
  %51 = load i32, ptr %4, align 4, !tbaa !4
  %52 = sext i32 %51 to i64
  %53 = getelementptr inbounds [32 x ptr], ptr %50, i64 0, i64 %52
  %54 = load ptr, ptr %53, align 8, !tbaa !142
  %55 = getelementptr inbounds float, ptr %54, i64 -8
  store ptr %55, ptr %6, align 8, !tbaa !142
  %56 = load ptr, ptr %6, align 8, !tbaa !142
  call void @llvm.memset.p0.i64(ptr align 4 %56, i8 0, i64 32, i1 false)
  call void @llvm.lifetime.end.p0(i64 8, ptr %6) #12
  br label %57

57:                                               ; preds = %45
  %58 = load i32, ptr %4, align 4, !tbaa !4
  %59 = add nsw i32 %58, 1
  store i32 %59, ptr %4, align 4, !tbaa !4
  br label %39, !llvm.loop !174

60:                                               ; preds = %39
  br label %61

61:                                               ; preds = %60
  %62 = load i32, ptr %3, align 4, !tbaa !4
  %63 = add nsw i32 %62, 1
  store i32 %63, ptr %3, align 4, !tbaa !4
  br label %32, !llvm.loop !175

64:                                               ; preds = %32
  store i32 0, ptr %5, align 4
  br label %65

65:                                               ; preds = %64, %11
  call void @llvm.lifetime.end.p0(i64 4, ptr %4) #12
  call void @llvm.lifetime.end.p0(i64 4, ptr %3) #12
  %66 = load i32, ptr %5, align 4
  switch i32 %66, label %68 [
    i32 0, label %67
    i32 1, label %67
  ]

67:                                               ; preds = %65, %65
  ret void

68:                                               ; preds = %65
  unreachable
}