; Function Attrs: cold nofree norecurse nosync nounwind optsize memory(write, argmem: readwrite, inaccessiblemem: none) uwtable
define void @ff_dca_lbr_flush(ptr noundef captures(none) %0) local_unnamed_addr #6 {
  %2 = getelementptr inbounds nuw i8, ptr %0, i64 40
  %3 = load i32, ptr %2, align 8, !tbaa !25
  %.not = icmp eq i32 %3, 0
  br i1 %.not, label %.loopexit, label %4

4:                                                ; preds = %1
  %5 = getelementptr inbounds nuw i8, ptr %0, i64 5260
  tail call void @llvm.memset.p0.i64(ptr noundef nonnull align 4 dereferenceable(240) %5, i8 16, i64 240, i1 false)
  %6 = getelementptr inbounds nuw i8, ptr %0, i64 5504
  tail call void @llvm.memset.p0.i64(ptr noundef nonnull align 16 dereferenceable(2304) %6, i8 0, i64 2304, i1 false)
  %7 = getelementptr inbounds nuw i8, ptr %0, i64 9488
  tail call void @llvm.memset.p0.i64(ptr noundef nonnull align 16 dereferenceable(3072) %7, i8 0, i64 3072, i1 false)
  %8 = getelementptr inbounds nuw i8, ptr %0, i64 13378
  tail call void @llvm.memset.p0.i64(ptr noundef nonnull align 2 dereferenceable(640) %8, i8 0, i64 640, i1 false)
  %9 = getelementptr inbounds nuw i8, ptr %0, i64 13328
  tail call void @llvm.memset.p0.i64(ptr noundef nonnull align 16 dereferenceable(40) %9, i8 0, i64 40, i1 false)
  %10 = getelementptr inbounds nuw i8, ptr %0, i64 104
  store i32 0, ptr %10, align 8, !tbaa !71
  %11 = getelementptr inbounds nuw i8, ptr %0, i64 22212
  store i32 0, ptr %11, align 4, !tbaa !74
  %12 = getelementptr inbounds nuw i8, ptr %0, i64 60
  %13 = load i32, ptr %12, align 4, !tbaa !27
  %14 = icmp sgt i32 %13, 0
  br i1 %14, label %.preheader.lr.ph, label %.loopexit

.preheader.lr.ph:                                 ; preds = %4
  %15 = getelementptr inbounds nuw i8, ptr %0, i64 88
  %16 = getelementptr inbounds nuw i8, ptr %0, i64 7936
  %.pre = load i32, ptr %15, align 8, !tbaa !39
  br label %.preheader

.preheader:                                       ; preds = %.preheader.lr.ph, %._crit_edge
  %17 = phi i32 [ %13, %.preheader.lr.ph ], [ %26, %._crit_edge ]
  %18 = phi i32 [ %.pre, %.preheader.lr.ph ], [ %27, %._crit_edge ]
  %indvars.iv21 = phi i64 [ 0, %.preheader.lr.ph ], [ %indvars.iv.next22, %._crit_edge ]
  %19 = icmp sgt i32 %18, 0
  br i1 %19, label %.lr.ph, label %._crit_edge

.lr.ph:                                           ; preds = %.preheader, %.lr.ph
  %indvars.iv = phi i64 [ %indvars.iv.next, %.lr.ph ], [ 0, %.preheader ]
  %20 = getelementptr inbounds nuw [6 x [32 x ptr]], ptr %16, i64 0, i64 %indvars.iv21, i64 %indvars.iv
  %21 = load ptr, ptr %20, align 8, !tbaa !132
  %22 = getelementptr inbounds i8, ptr %21, i64 -32
  tail call void @llvm.memset.p0.i64(ptr noundef nonnull align 4 dereferenceable(32) %22, i8 0, i64 32, i1 false)
  %indvars.iv.next = add nuw nsw i64 %indvars.iv, 1
  %23 = load i32, ptr %15, align 8, !tbaa !39
  %24 = sext i32 %23 to i64
  %25 = icmp slt i64 %indvars.iv.next, %24
  br i1 %25, label %.lr.ph, label %._crit_edge.loopexit, !llvm.loop !174

._crit_edge.loopexit:                             ; preds = %.lr.ph
  %.pre24 = load i32, ptr %12, align 4, !tbaa !27
  br label %._crit_edge

._crit_edge:                                      ; preds = %._crit_edge.loopexit, %.preheader
  %26 = phi i32 [ %.pre24, %._crit_edge.loopexit ], [ %17, %.preheader ]
  %27 = phi i32 [ %23, %._crit_edge.loopexit ], [ %18, %.preheader ]
  %indvars.iv.next22 = add nuw nsw i64 %indvars.iv21, 1
  %28 = sext i32 %26 to i64
  %29 = icmp slt i64 %indvars.iv.next22, %28
  br i1 %29, label %.preheader, label %.loopexit, !llvm.loop !175

.loopexit:                                        ; preds = %._crit_edge, %4, %1
  ret void
}